target datalayout = "e-m:e-p270:32:32-p271:32:32-p272:64:64-i64:64-i128:128-f80:128-n8:16:32:64-S128"
target triple = "x86_64-pc-linux-gnu"

; Function Attrs: mustprogress nounwind uwtable
define internal noundef zeroext i1 @_ZL28isBetterReferenceBindingKindRKN5clang26StandardConversionSequenceES2_(ptr noundef nonnull align 8 dereferenceable(56) %0, ptr noundef nonnull align 8 dereferenceable(56) %1) #0 {
  %3 = alloca i1, align 1
  %4 = alloca ptr, align 8
  %5 = alloca ptr, align 8
  store ptr %0, ptr %4, align 8
  store ptr %1, ptr %5, align 8
  %6 = load ptr, ptr %4, align 8
  %7 = load i64, ptr %6, align 8
  %8 = lshr i64 %7, 40
  %9 = and i64 %8, 1
  %10 = trunc i64 %9 to i32
  %11 = icmp ne i32 %10, 0
  br i1 %11, label %19, label %12

12:                                               ; preds = %2
  %13 = load ptr, ptr %5, align 8
  %14 = load i64, ptr %13, align 8
  %15 = lshr i64 %14, 40
  %16 = and i64 %15, 1
  %17 = trunc i64 %16 to i32
  %18 = icmp ne i32 %17, 0
  br i1 %18, label %19, label %20

19:                                               ; preds = %12, %2
  store i1 false, ptr %3, align 1
  br label %73

20:                                               ; preds = %12
  %21 = load ptr, ptr %4, align 8
  %22 = load i64, ptr %21, align 8
  %23 = lshr i64 %22, 37
  %24 = and i64 %23, 1
  %25 = trunc i64 %24 to i32
  %26 = icmp ne i32 %25, 0
  br i1 %26, label %41, label %27

27:                                               ; preds = %20
  %28 = load ptr, ptr %4, align 8
  %29 = load i64, ptr %28, align 8
  %30 = lshr i64 %29, 39
  %31 = and i64 %30, 1
  %32 = trunc i64 %31 to i32
  %33 = icmp ne i32 %32, 0
  br i1 %33, label %34, label %41

34:                                               ; preds = %27
  %35 = load ptr, ptr %5, align 8
  %36 = load i64, ptr %35, align 8
  %37 = lshr i64 %36, 37
  %38 = and i64 %37, 1
  %39 = trunc i64 %38 to i32
  %40 = icmp ne i32 %39, 0
  br i1 %40, label %71, label %41

41:                                               ; preds = %34, %27, %20
  %42 = load ptr, ptr %4, align 8
  %43 = load i64, ptr %42, align 8
  %44 = lshr i64 %43, 37
  %45 = and i64 %44, 1
  %46 = trunc i64 %45 to i32
  %47 = icmp ne i32 %46, 0
  br i1 %47, label %48, label %69

48:                                               ; preds = %41
  %49 = load ptr, ptr %4, align 8
  %50 = load i64, ptr %49, align 8
  %51 = lshr i64 %50, 38
  %52 = and i64 %51, 1
  %53 = trunc i64 %52 to i32
  %54 = icmp ne i32 %53, 0
  br i1 %54, label %55, label %69

55:                                               ; preds = %48
  %56 = load ptr, ptr %5, align 8
  %57 = load i64, ptr %56, align 8
  %58 = lshr i64 %57, 37
  %59 = and i64 %58, 1
  %60 = trunc i64 %59 to i32
  %61 = icmp ne i32 %60, 0
  br i1 %61, label %69, label %62

62:                                               ; preds = %55
  %63 = load ptr, ptr %5, align 8
  %64 = load i64, ptr %63, align 8
  %65 = lshr i64 %64, 38
  %66 = and i64 %65, 1
  %67 = trunc i64 %66 to i32
  %68 = icmp ne i32 %67, 0
  br label %69

69:                                               ; preds = %62, %55, %48, %41
  %70 = phi i1 [ false, %55 ], [ false, %48 ], [ false, %41 ], [ %68, %62 ]
  br label %71

71:                                               ; preds = %69, %34
  %72 = phi i1 [ true, %34 ], [ %70, %69 ]
  store i1 %72, ptr %3, align 1
  br label %73

73:                                               ; preds = %71, %19
  %74 = load i1, ptr %3, align 1
  ret i1 %74
}