; Function Attrs: mustprogress nofree norecurse nosync nounwind willreturn memory(none) uwtable
define internal fastcc noundef zeroext i1 @_ZL28isBetterReferenceBindingKindRKN5clang26StandardConversionSequenceES2_(i64 %.0.val, i64 %.0.val1) unnamed_addr #0 {
  %1 = and i64 %.0.val, 1099511627776
  %.not = icmp eq i64 %1, 0
  %2 = and i64 %.0.val1, 1099511627776
  %.not10 = icmp eq i64 %2, 0
  %or.cond3 = select i1 %.not, i1 %.not10, i1 false
  br i1 %or.cond3, label %3, label %11

3:                                                ; preds = %0
  %4 = and i64 %.0.val, 687194767360
  %or.cond = icmp ne i64 %4, 549755813888
  %5 = and i64 %.0.val1, 137438953472
  %.not13 = icmp eq i64 %5, 0
  %or.cond17 = or i1 %or.cond, %.not13
  br i1 %or.cond17, label %6, label %11

6:                                                ; preds = %3
  %7 = and i64 %.0.val, 412316860416
  %or.cond18 = icmp eq i64 %7, 412316860416
  %brmerge.not = and i1 %or.cond18, %.not13
  br i1 %brmerge.not, label %8, label %11

8:                                                ; preds = %6
  %9 = and i64 %.0.val1, 274877906944
  %10 = icmp ne i64 %9, 0
  br label %11

11:                                               ; preds = %6, %8, %3, %0
  %.0 = phi i1 [ false, %0 ], [ false, %6 ], [ %10, %8 ], [ true, %3 ]
  ret i1 %.0
}